; Function Attrs: nofree norecurse nosync nounwind memory(argmem: readwrite) uwtable
define void @Sim_UtilSetConst(ptr noundef captures(none) %0, i32 noundef %1, i32 noundef %2) local_unnamed_addr #6 {
  %4 = icmp sgt i32 %1, 0
  br i1 %4, label %._crit_edge, label %Sim_UtilSetCompl.exit

._crit_edge:                                      ; preds = %3
  %5 = zext nneg i32 %1 to i64
  %6 = shl nuw nsw i64 %5, 2
  tail call void @llvm.memset.p0.i64(ptr align 4 %0, i8 0, i64 %6, i1 false), !tbaa !14
  %.not.not = icmp eq i32 %2, 0
  br i1 %.not.not, label %Sim_UtilSetCompl.exit, label %.lr.ph.preheader.i

.lr.ph.preheader.i:                               ; preds = %._crit_edge
  %wide.trip.count.i = zext nneg i32 %1 to i64
  br label %.lr.ph.i

.lr.ph.i:                                         ; preds = %.lr.ph.i, %.lr.ph.preheader.i
  %indvars.iv.i = phi i64 [ 0, %.lr.ph.preheader.i ], [ %indvars.iv.next.i, %.lr.ph.i ]
  %7 = getelementptr inbounds nuw i32, ptr %0, i64 %indvars.iv.i
  %8 = load i32, ptr %7, align 4, !tbaa !14
  %9 = xor i32 %8, -1
  store i32 %9, ptr %7, align 4, !tbaa !14
  %indvars.iv.next.i = add nuw nsw i64 %indvars.iv.i, 1
  %exitcond.not.i = icmp eq i64 %indvars.iv.next.i, %wide.trip.count.i
  br i1 %exitcond.not.i, label %Sim_UtilSetCompl.exit, label %.lr.ph.i, !llvm.loop !81

Sim_UtilSetCompl.exit:                            ; preds = %.lr.ph.i, %3, %._crit_edge
  ret void
}